; Function Attrs: nounwind uwtable
define ptr @l_Array_forIn_x27Unsafe_loop___at___private_Lean_Meta_Tactic_Grind_ProveEq_0__Lean_Meta_Grind_mkLambdaWithBodyAndVarType___spec__1___boxed(ptr noundef %0, ptr noundef %1, ptr noundef %2, ptr noundef %3, ptr noundef %4, ptr noundef %5) local_unnamed_addr #1 {
  %7 = getelementptr i8, ptr %3, i64 8
  %.val = load i64, ptr %7, align 8, !tbaa !16
  %8 = ptrtoint ptr %3 to i64
  %9 = and i64 %8, 1
  %.not = icmp eq i64 %9, 0
  br i1 %.not, label %10, label %lean_dec.exit16

10:                                               ; preds = %6
  %11 = load i32, ptr %3, align 4, !tbaa !8
  %12 = icmp sgt i32 %11, 1
  br i1 %12, label %13, label %15, !prof !11

13:                                               ; preds = %10
  %14 = add nsw i32 %11, -1
  store i32 %14, ptr %3, align 4, !tbaa !8
  br label %lean_dec.exit16

15:                                               ; preds = %10
  %.not.i = icmp eq i32 %11, 0
  br i1 %.not.i, label %lean_dec.exit16, label %16

16:                                               ; preds = %15
  tail call void @lean_dec_ref_cold(ptr noundef nonnull %3) #4
  br label %lean_dec.exit16

lean_dec.exit16:                                  ; preds = %16, %15, %13, %6
  %17 = getelementptr i8, ptr %4, i64 8
  %.val25 = load i64, ptr %17, align 8, !tbaa !16
  %18 = ptrtoint ptr %4 to i64
  %19 = and i64 %18, 1
  %.not26 = icmp eq i64 %19, 0
  br i1 %.not26, label %20, label %lean_dec.exit15

20:                                               ; preds = %lean_dec.exit16
  %21 = load i32, ptr %4, align 4, !tbaa !8
  %22 = icmp sgt i32 %21, 1
  br i1 %22, label %23, label %25, !prof !11

23:                                               ; preds = %20
  %24 = add nsw i32 %21, -1
  store i32 %24, ptr %4, align 4, !tbaa !8
  br label %lean_dec.exit15

25:                                               ; preds = %20
  %.not.i17 = icmp eq i32 %21, 0
  br i1 %.not.i17, label %lean_dec.exit15, label %26

26:                                               ; preds = %25
  tail call void @lean_dec_ref_cold(ptr noundef nonnull %4) #4
  br label %lean_dec.exit15

lean_dec.exit15:                                  ; preds = %26, %25, %23, %lean_dec.exit16
  %.not27.i = icmp ult i64 %.val25, %.val
  br i1 %.not27.i, label %.lr.ph.i, label %l_Array_forIn_x27Unsafe_loop___at___private_Lean_Meta_Tactic_Grind_ProveEq_0__Lean_Meta_Grind_mkLambdaWithBodyAndVarType___spec__1.exit

.lr.ph.i:                                         ; preds = %lean_dec.exit15
  %27 = getelementptr inbounds nuw i8, ptr %2, i64 24
  br label %28

28:                                               ; preds = %39, %.lr.ph.i
  %.01529.i = phi i64 [ %.val25, %.lr.ph.i ], [ %42, %39 ]
  %.01728.i = phi ptr [ %5, %.lr.ph.i ], [ %41, %39 ]
  %29 = getelementptr inbounds nuw [0 x ptr], ptr %27, i64 0, i64 %.01529.i
  %30 = load ptr, ptr %29, align 8, !tbaa !4
  %31 = ptrtoint ptr %30 to i64
  %32 = and i64 %31, 1
  %.not.i.i = icmp eq i64 %32, 0
  br i1 %.not.i.i, label %33, label %39

33:                                               ; preds = %28
  %.val.i.i.i = load i32, ptr %30, align 4, !tbaa !8
  %34 = icmp sgt i32 %.val.i.i.i, 0
  br i1 %34, label %35, label %37, !prof !11

35:                                               ; preds = %33
  %36 = add nuw i32 %.val.i.i.i, 1
  store i32 %36, ptr %30, align 4, !tbaa !8
  br label %39

37:                                               ; preds = %33
  %.not.i.i.i = icmp eq i32 %.val.i.i.i, 0
  br i1 %.not.i.i.i, label %39, label %38

38:                                               ; preds = %37
  tail call void @lean_inc_ref_cold(ptr noundef nonnull %30) #4
  br label %39

39:                                               ; preds = %38, %37, %35, %28
  %40 = load ptr, ptr @l_Array_forIn_x27Unsafe_loop___at___private_Lean_Meta_Tactic_Grind_ProveEq_0__Lean_Meta_Grind_mkLambdaWithBodyAndVarType___spec__1___closed__3, align 8, !tbaa !4
  %41 = tail call ptr @l_Lean_Expr_lam___override(ptr noundef %40, ptr noundef %30, ptr noundef %.01728.i, i8 noundef zeroext 0) #4
  %42 = add nuw i64 %.01529.i, 1
  %exitcond.not.i = icmp eq i64 %42, %.val
  br i1 %exitcond.not.i, label %l_Array_forIn_x27Unsafe_loop___at___private_Lean_Meta_Tactic_Grind_ProveEq_0__Lean_Meta_Grind_mkLambdaWithBodyAndVarType___spec__1.exit, label %28

l_Array_forIn_x27Unsafe_loop___at___private_Lean_Meta_Tactic_Grind_ProveEq_0__Lean_Meta_Grind_mkLambdaWithBodyAndVarType___spec__1.exit: ; preds = %39, %lean_dec.exit15
  %.017.lcssa.i = phi ptr [ %5, %lean_dec.exit15 ], [ %41, %39 ]
  %43 = ptrtoint ptr %2 to i64
  %44 = and i64 %43, 1
  %.not27 = icmp eq i64 %44, 0
  br i1 %.not27, label %45, label %lean_dec.exit14

45:                                               ; preds = %l_Array_forIn_x27Unsafe_loop___at___private_Lean_Meta_Tactic_Grind_ProveEq_0__Lean_Meta_Grind_mkLambdaWithBodyAndVarType___spec__1.exit
  %46 = load i32, ptr %2, align 4, !tbaa !8
  %47 = icmp sgt i32 %46, 1
  br i1 %47, label %48, label %50, !prof !11

48:                                               ; preds = %45
  %49 = add nsw i32 %46, -1
  store i32 %49, ptr %2, align 4, !tbaa !8
  br label %lean_dec.exit14

50:                                               ; preds = %45
  %.not.i19 = icmp eq i32 %46, 0
  br i1 %.not.i19, label %lean_dec.exit14, label %51

51:                                               ; preds = %50
  tail call void @lean_dec_ref_cold(ptr noundef nonnull %2) #4
  br label %lean_dec.exit14

lean_dec.exit14:                                  ; preds = %51, %50, %48, %l_Array_forIn_x27Unsafe_loop___at___private_Lean_Meta_Tactic_Grind_ProveEq_0__Lean_Meta_Grind_mkLambdaWithBodyAndVarType___spec__1.exit
  %52 = ptrtoint ptr %1 to i64
  %53 = and i64 %52, 1
  %.not28 = icmp eq i64 %53, 0
  br i1 %.not28, label %54, label %lean_dec.exit13

54:                                               ; preds = %lean_dec.exit14
  %55 = load i32, ptr %1, align 4, !tbaa !8
  %56 = icmp sgt i32 %55, 1
  br i1 %56, label %57, label %59, !prof !11

57:                                               ; preds = %54
  %58 = add nsw i32 %55, -1
  store i32 %58, ptr %1, align 4, !tbaa !8
  br label %lean_dec.exit13

59:                                               ; preds = %54
  %.not.i21 = icmp eq i32 %55, 0
  br i1 %.not.i21, label %lean_dec.exit13, label %60

60:                                               ; preds = %59
  tail call void @lean_dec_ref_cold(ptr noundef nonnull %1) #4
  br label %lean_dec.exit13

lean_dec.exit13:                                  ; preds = %60, %59, %57, %lean_dec.exit14
  %61 = ptrtoint ptr %0 to i64
  %62 = and i64 %61, 1
  %.not29 = icmp eq i64 %62, 0
  br i1 %.not29, label %63, label %lean_dec.exit

63:                                               ; preds = %lean_dec.exit13
  %64 = load i32, ptr %0, align 4, !tbaa !8
  %65 = icmp sgt i32 %64, 1
  br i1 %65, label %66, label %68, !prof !11

66:                                               ; preds = %63
  %67 = add nsw i32 %64, -1
  store i32 %67, ptr %0, align 4, !tbaa !8
  br label %lean_dec.exit

68:                                               ; preds = %63
  %.not.i23 = icmp eq i32 %64, 0
  br i1 %.not.i23, label %lean_dec.exit, label %69

69:                                               ; preds = %68
  tail call void @lean_dec_ref_cold(ptr noundef nonnull %0) #4
  br label %lean_dec.exit

lean_dec.exit:                                    ; preds = %69, %68, %66, %lean_dec.exit13
  ret ptr %.017.lcssa.i
}